; Function Attrs: mustprogress nounwind uwtable
define hidden noundef ptr @_ZN8LoadNode27convert_to_reinterpret_loadER8PhaseGVNPK4Type(ptr noundef nonnull align 8 dereferenceable(72) %0, ptr noundef nonnull align 8 dereferenceable(2400) %1, ptr noundef %2) local_unnamed_addr #1 align 2 {
  %4 = getelementptr inbounds i8, ptr %2, i64 16
  %5 = load i32, ptr %4, align 8
  %6 = zext i32 %5 to i64
  %7 = getelementptr inbounds [0 x %"struct.Type::TypeInfo"], ptr @_ZN4Type10_type_infoE, i64 0, i64 %6, i32 1
  %8 = load i8, ptr %7, align 4
  %9 = getelementptr inbounds i8, ptr %0, i64 53
  %10 = load i8, ptr %9, align 1
  %11 = getelementptr inbounds i8, ptr %0, i64 8
  %12 = load ptr, ptr %11, align 8
  %13 = getelementptr inbounds i8, ptr %12, i64 8
  %14 = load ptr, ptr %13, align 8
  %15 = getelementptr inbounds i8, ptr %1, i64 40
  %16 = load ptr, ptr %15, align 8
  %17 = getelementptr inbounds i8, ptr %14, i64 40
  %18 = load i32, ptr %17, align 8
  %19 = getelementptr inbounds i8, ptr %16, i64 16
  %20 = load ptr, ptr %19, align 8
  %21 = zext i32 %18 to i64
  %22 = getelementptr inbounds ptr, ptr %20, i64 %21
  %23 = load ptr, ptr %22, align 8
  %24 = getelementptr inbounds i8, ptr %23, i64 16
  %25 = load i32, ptr %24, align 8
  %26 = load ptr, ptr %0, align 8
  %27 = load ptr, ptr %26, align 8
  %28 = tail call noundef i32 %27(ptr noundef nonnull align 8 dereferenceable(52) %0) #13
  switch i32 %28, label %32 [
    i32 196, label %.sink.split
    i32 190, label %.sink.split
  ]

.sink.split:                                      ; preds = %3, %3
  %29 = getelementptr inbounds i8, ptr %0, i64 72
  %30 = load i8, ptr %29, align 8
  %31 = trunc i8 %30 to i1
  br label %32

32:                                               ; preds = %.sink.split, %3
  %33 = phi i1 [ false, %3 ], [ %31, %.sink.split ]
  %34 = icmp ne i32 %25, 19
  %35 = trunc i8 %10 to i1
  %spec.select = select i1 %34, i1 true, i1 %35
  %36 = load ptr, ptr %11, align 8
  %37 = load ptr, ptr %36, align 8
  %38 = getelementptr inbounds i8, ptr %36, i64 8
  %39 = load ptr, ptr %38, align 8
  %40 = getelementptr inbounds i8, ptr %36, i64 16
  %41 = load ptr, ptr %40, align 8
  %42 = getelementptr inbounds i8, ptr %0, i64 60
  %43 = load i32, ptr %42, align 4
  %44 = getelementptr inbounds i8, ptr %0, i64 56
  %45 = load i32, ptr %44, align 8
  %46 = getelementptr inbounds i8, ptr %0, i64 52
  %47 = load i8, ptr %46, align 4
  %48 = trunc i8 %47 to i1
  %49 = tail call noundef ptr @_ZN8LoadNode4makeER8PhaseGVNP4NodeS3_S3_PK7TypePtrPK4Type9BasicTypeN7MemNode6MemOrdENS_17ControlDependencyEbbbbh(ptr noundef nonnull align 8 dereferenceable(2400) %1, ptr noundef %37, ptr noundef %39, ptr noundef %41, ptr poison, ptr noundef nonnull %2, i8 noundef zeroext %8, i32 noundef %43, i32 noundef %45, i1 noundef zeroext %33, i1 noundef zeroext %48, i1 noundef zeroext %spec.select, i1 noundef zeroext false, i8 noundef zeroext 0)
  ret ptr %49
}